Certificate:
    Data:
        Version: 3 (0x2)
        Serial Number: 1 (0x1)
        Signature Algorithm: sha256WithRSAEncryption
        Issuer: C=FR, ST=Radius, L=Somewhere, O=Example Inc./emailAddress=admin@example.org, CN=Example Certificate Authority
        Validity
            Not Before: Sep 22 16:54:29 2021 GMT
            Not After : Nov 21 16:54:29 2021 GMT
        Subject: C=FR, ST=Radius, O=Example Inc., CN=Example Server Certificate/emailAddress=admin@example.org
        Subject Public Key Info:
            Public Key Algorithm: rsaEncryption
                RSA Public-Key: (2048 bit)
                Modulus:
                    00:cd:02:9e:a1:a3:e9:a2:9f:a9:5b:f9:f2:c9:61:
                    70:7f:43:49:39:ae:52:34:c5:cb:11:b1:0d:3c:34:
                    92:68:21:ec:cb:d4:89:18:49:99:7e:7f:bb:5b:f6:
                    f5:16:a9:42:7d:e3:80:4e:64:a9:7e:e6:9c:1c:12:
                    da:f7:c5:d1:6d:18:c3:6e:ad:d2:3a:22:3f:1f:7b:
                    7f:e5:a4:54:9b:17:74:85:49:c5:0a:40:16:f2:a8:
                    bb:35:b8:62:a5:59:6f:cc:1e:4b:1f:f8:4e:ca:6a:
                    eb:07:96:71:31:0a:b2:ac:0b:9d:01:3c:63:de:98:
                    3c:e3:21:c9:f3:87:c7:14:06:49:fd:63:81:44:7e:
                    65:b4:da:2d:c9:a7:8b:c1:4a:6b:d8:6b:c9:b6:61:
                    95:2f:fc:d3:4e:89:95:a4:fb:3c:89:a3:e5:b2:dc:
                    1f:9a:cf:cc:2f:36:97:8f:c0:41:53:7f:6b:34:d1:
                    01:84:24:37:35:7d:e1:b3:1d:30:16:9a:b4:bd:ba:
                    af:4f:04:51:1e:a5:c1:9e:60:57:6a:53:69:5a:5b:
                    c5:66:10:78:81:5a:46:e0:37:cb:4d:13:68:49:e4:
                    06:c9:67:ae:a2:ef:a2:19:95:d4:dc:38:d3:be:08:
                    c7:74:e0:b2:cd:0b:fc:83:b3:46:ac:f1:43:82:be:
                    a8:e9
                Exponent: 65537 (0x10001)
        X509v3 extensions:
            X509v3 Extended Key Usage: 
                TLS Web Server Authentication
            X509v3 CRL Distribution Points: 

                Full Name:
                  URI:http://www.example.com/example_ca.crl

            X509v3 Certificate Policies: 
                Policy: 1.3.6.1.4.1.40808.1.3.2

    Signature Algorithm: sha256WithRSAEncryption
         07:de:fc:28:f9:08:fd:d7:fc:33:e4:6a:d7:03:a5:ce:d1:49:
         94:31:fe:67:0e:c9:43:e8:df:c3:63:f4:9c:ef:1d:8b:f5:4f:
         fb:2c:64:e2:f3:c6:19:53:bf:fc:81:be:52:b1:0a:98:7f:22:
         19:71:a6:8e:a7:91:fc:88:95:19:52:db:6d:a1:0d:8e:c0:ec:
         ed:26:de:99:20:af:e2:29:35:0c:fc:24:36:65:3b:b1:42:64:
         c9:4f:8a:38:b9:da:ff:4b:d0:be:bc:59:a4:fe:fd:89:a0:1a:
         a3:aa:1d:e2:0b:75:3e:3f:9a:67:a8:d1:5b:f1:12:23:9b:79:
         c3:ab:3e:3c:af:fe:ac:f8:92:63:af:b6:8f:86:78:d4:d4:cf:
         92:4f:7b:48:ec:d8:18:1f:b7:af:c5:c2:71:bc:6c:80:18:b2:
         6b:5c:fd:f4:f0:a5:ce:dc:43:24:a4:d6:e1:47:e7:02:76:10:
         12:1f:89:57:5b:d0:a7:f4:98:21:d5:e6:7c:f4:ea:40:95:ee:
         fb:b2:84:e7:b0:37:69:de:1f:ae:87:8f:be:a1:db:b6:c4:86:
         75:a9:f4:d5:71:0c:7a:9d:7f:6e:bd:47:95:cf:01:cc:f8:02:
         04:63:0f:33:a4:f2:0e:a5:71:5b:5f:a5:75:30:a7:4d:bc:06:
         69:7b:e9:c9
-----BEGIN CERTIFICATE-----
MIID9DCCAtygAwIBAgIBATANBgkqhkiG9w0BAQsFADCBkzELMAkGA1UEBhMCRlIx
DzANBgNVBAgMBlJhZGl1czESMBAGA1UEBwwJU29tZXdoZXJlMRUwEwYDVQQKDAxF
eGFtcGxlIEluYy4xIDAeBgkqhkiG9w0BCQEWEWFkbWluQGV4YW1wbGUub3JnMSYw
JAYDVQQDDB1FeGFtcGxlIENlcnRpZmljYXRlIEF1dGhvcml0eTAeFw0yMTA5MjIx
NjU0MjlaFw0yMTExMjExNjU0MjlaMHwxCzAJBgNVBAYTAkZSMQ8wDQYDVQQIDAZS
YWRpdXMxFTATBgNVBAoMDEV4YW1wbGUgSW5jLjEjMCEGA1UEAwwaRXhhbXBsZSBT
ZXJ2ZXIgQ2VydGlmaWNhdGUxIDAeBgkqhkiG9w0BCQEWEWFkbWluQGV4YW1wbGUu
b3JnMIIBIjANBgkqhkiG9w0BAQEFAAOCAQ8AMIIBCgKCAQEAzQKeoaPpop+pW/ny
yWFwf0NJOa5SNMXLEbENPDSSaCHsy9SJGEmZfn+7W/b1FqlCfeOATmSpfuacHBLa
98XRbRjDbq3SOiI/H3t/5aRUmxd0hUnFCkAW8qi7NbhipVlvzB5LH/hOymrrB5Zx
MQqyrAudATxj3pg84yHJ84fHFAZJ/WOBRH5ltNotyaeLwUpr2GvJtmGVL/zTTomV
pPs8iaPlstwfms/MLzaXj8BBU39rNNEBhCQ3NX3hsx0wFpq0vbqvTwRRHqXBnmBX
alNpWlvFZhB4gVpG4DfLTRNoSeQGyWeuou+iGZXU3DjTvgjHdOCyzQv8g7NGrPFD
gr6o6QIDAQABo2kwZzATBgNVHSUEDDAKBggrBgEFBQcDATA2BgNVHR8ELzAtMCug
KaAnhiVodHRwOi8vd3d3LmV4YW1wbGUuY29tL2V4YW1wbGVfY2EuY3JsMBgGA1Ud
IAQRMA8wDQYLKwYBBAGCvmgBAwIwDQYJKoZIhvcNAQELBQADggEBAAfe/Cj5CP3X
/DPkatcDpc7RSZQx/mcOyUPo38Nj9JzvHYv1T/ssZOLzxhlTv/yBvlKxCph/Ihlx
po6nkfyIlRlS222hDY7A7O0m3pkgr+IpNQz8JDZlO7FCZMlPiji52v9L0L68WaT+
/YmgGqOqHeILdT4/mmeo0VvxEiObecOrPjyv/qz4kmOvto+GeNTUz5JPe0js2Bgf
t6/FwnG8bIAYsmtc/fTwpc7cQySk1uFH5wJ2EBIfiVdb0Kf0mCHV5nz06kCV7vuy
hOewN2neH66Hj76h27bEhnWp9NVxDHqdf269R5XPAcz4AgRjDzOk8g6lcVtfpXUw
p028Bml76ck=
-----END CERTIFICATE-----
